target datalayout = "e-m:e-p270:32:32-p271:32:32-p272:64:64-i64:64-i128:128-f80:128-n8:16:32:64-S128"
target triple = "x86_64-pc-linux-gnu"

%struct.Curl_llist_node = type { ptr, ptr, ptr, ptr }
%struct.Cookie = type { %struct.Curl_llist_node, %struct.Curl_llist_node, ptr, ptr, ptr, ptr, ptr, i64, i32, i8 }

; Function Attrs: nounwind uwtable
define internal i32 @cookie_sort(ptr noundef %0, ptr noundef %1) #0 {
  %3 = alloca i32, align 4
  %4 = alloca ptr, align 8
  %5 = alloca ptr, align 8
  %6 = alloca ptr, align 8
  %7 = alloca ptr, align 8
  %8 = alloca i64, align 8
  %9 = alloca i64, align 8
  %10 = alloca i32, align 4
  store ptr %0, ptr %4, align 8, !tbaa !92
  store ptr %1, ptr %5, align 8, !tbaa !92
  call void @llvm.lifetime.start.p0(i64 8, ptr %6) #6
  %11 = load ptr, ptr %4, align 8, !tbaa !92
  %12 = load ptr, ptr %11, align 8, !tbaa !103
  store ptr %12, ptr %6, align 8, !tbaa !103
  call void @llvm.lifetime.start.p0(i64 8, ptr %7) #6
  %13 = load ptr, ptr %5, align 8, !tbaa !92
  %14 = load ptr, ptr %13, align 8, !tbaa !103
  store ptr %14, ptr %7, align 8, !tbaa !103
  call void @llvm.lifetime.start.p0(i64 8, ptr %8) #6
  call void @llvm.lifetime.start.p0(i64 8, ptr %9) #6
  %15 = load ptr, ptr %6, align 8, !tbaa !103
  %16 = getelementptr inbounds nuw %struct.Cookie, ptr %15, i32 0, i32 4
  %17 = load ptr, ptr %16, align 8, !tbaa !105
  %18 = icmp ne ptr %17, null
  br i1 %18, label %19, label %24

19:                                               ; preds = %2
  %20 = load ptr, ptr %6, align 8, !tbaa !103
  %21 = getelementptr inbounds nuw %struct.Cookie, ptr %20, i32 0, i32 4
  %22 = load ptr, ptr %21, align 8, !tbaa !105
  %23 = call i64 @strlen(ptr noundef %22) #7
  br label %25

24:                                               ; preds = %2
  br label %25

25:                                               ; preds = %24, %19
  %26 = phi i64 [ %23, %19 ], [ 0, %24 ]
  store i64 %26, ptr %8, align 8, !tbaa !111
  %27 = load ptr, ptr %7, align 8, !tbaa !103
  %28 = getelementptr inbounds nuw %struct.Cookie, ptr %27, i32 0, i32 4
  %29 = load ptr, ptr %28, align 8, !tbaa !105
  %30 = icmp ne ptr %29, null
  br i1 %30, label %31, label %36

31:                                               ; preds = %25
  %32 = load ptr, ptr %7, align 8, !tbaa !103
  %33 = getelementptr inbounds nuw %struct.Cookie, ptr %32, i32 0, i32 4
  %34 = load ptr, ptr %33, align 8, !tbaa !105
  %35 = call i64 @strlen(ptr noundef %34) #7
  br label %37

36:                                               ; preds = %25
  br label %37

37:                                               ; preds = %36, %31
  %38 = phi i64 [ %35, %31 ], [ 0, %36 ]
  store i64 %38, ptr %9, align 8, !tbaa !111
  %39 = load i64, ptr %8, align 8, !tbaa !111
  %40 = load i64, ptr %9, align 8, !tbaa !111
  %41 = icmp ne i64 %39, %40
  br i1 %41, label %42, label %47

42:                                               ; preds = %37
  %43 = load i64, ptr %9, align 8, !tbaa !111
  %44 = load i64, ptr %8, align 8, !tbaa !111
  %45 = icmp ugt i64 %43, %44
  %46 = select i1 %45, i32 1, i32 -1
  store i32 %46, ptr %3, align 4
  store i32 1, ptr %10, align 4
  br label %122

47:                                               ; preds = %37
  %48 = load ptr, ptr %6, align 8, !tbaa !103
  %49 = getelementptr inbounds nuw %struct.Cookie, ptr %48, i32 0, i32 6
  %50 = load ptr, ptr %49, align 8, !tbaa !110
  %51 = icmp ne ptr %50, null
  br i1 %51, label %52, label %57

52:                                               ; preds = %47
  %53 = load ptr, ptr %6, align 8, !tbaa !103
  %54 = getelementptr inbounds nuw %struct.Cookie, ptr %53, i32 0, i32 6
  %55 = load ptr, ptr %54, align 8, !tbaa !110
  %56 = call i64 @strlen(ptr noundef %55) #7
  br label %58

57:                                               ; preds = %47
  br label %58

58:                                               ; preds = %57, %52
  %59 = phi i64 [ %56, %52 ], [ 0, %57 ]
  store i64 %59, ptr %8, align 8, !tbaa !111
  %60 = load ptr, ptr %7, align 8, !tbaa !103
  %61 = getelementptr inbounds nuw %struct.Cookie, ptr %60, i32 0, i32 6
  %62 = load ptr, ptr %61, align 8, !tbaa !110
  %63 = icmp ne ptr %62, null
  br i1 %63, label %64, label %69

64:                                               ; preds = %58
  %65 = load ptr, ptr %7, align 8, !tbaa !103
  %66 = getelementptr inbounds nuw %struct.Cookie, ptr %65, i32 0, i32 6
  %67 = load ptr, ptr %66, align 8, !tbaa !110
  %68 = call i64 @strlen(ptr noundef %67) #7
  br label %70

69:                                               ; preds = %58
  br label %70

70:                                               ; preds = %69, %64
  %71 = phi i64 [ %68, %64 ], [ 0, %69 ]
  store i64 %71, ptr %9, align 8, !tbaa !111
  %72 = load i64, ptr %8, align 8, !tbaa !111
  %73 = load i64, ptr %9, align 8, !tbaa !111
  %74 = icmp ne i64 %72, %73
  br i1 %74, label %75, label %80

75:                                               ; preds = %70
  %76 = load i64, ptr %9, align 8, !tbaa !111
  %77 = load i64, ptr %8, align 8, !tbaa !111
  %78 = icmp ugt i64 %76, %77
  %79 = select i1 %78, i32 1, i32 -1
  store i32 %79, ptr %3, align 4
  store i32 1, ptr %10, align 4
  br label %122

80:                                               ; preds = %70
  %81 = load ptr, ptr %6, align 8, !tbaa !103
  %82 = getelementptr inbounds nuw %struct.Cookie, ptr %81, i32 0, i32 2
  %83 = load ptr, ptr %82, align 8, !tbaa !112
  %84 = icmp ne ptr %83, null
  br i1 %84, label %85, label %90

85:                                               ; preds = %80
  %86 = load ptr, ptr %6, align 8, !tbaa !103
  %87 = getelementptr inbounds nuw %struct.Cookie, ptr %86, i32 0, i32 2
  %88 = load ptr, ptr %87, align 8, !tbaa !112
  %89 = call i64 @strlen(ptr noundef %88) #7
  br label %91

90:                                               ; preds = %80
  br label %91

91:                                               ; preds = %90, %85
  %92 = phi i64 [ %89, %85 ], [ 0, %90 ]
  store i64 %92, ptr %8, align 8, !tbaa !111
  %93 = load ptr, ptr %7, align 8, !tbaa !103
  %94 = getelementptr inbounds nuw %struct.Cookie, ptr %93, i32 0, i32 2
  %95 = load ptr, ptr %94, align 8, !tbaa !112
  %96 = icmp ne ptr %95, null
  br i1 %96, label %97, label %102

97:                                               ; preds = %91
  %98 = load ptr, ptr %7, align 8, !tbaa !103
  %99 = getelementptr inbounds nuw %struct.Cookie, ptr %98, i32 0, i32 2
  %100 = load ptr, ptr %99, align 8, !tbaa !112
  %101 = call i64 @strlen(ptr noundef %100) #7
  br label %103

102:                                              ; preds = %91
  br label %103

103:                                              ; preds = %102, %97
  %104 = phi i64 [ %101, %97 ], [ 0, %102 ]
  store i64 %104, ptr %9, align 8, !tbaa !111
  %105 = load i64, ptr %8, align 8, !tbaa !111
  %106 = load i64, ptr %9, align 8, !tbaa !111
  %107 = icmp ne i64 %105, %106
  br i1 %107, label %108, label %113

108:                                              ; preds = %103
  %109 = load i64, ptr %9, align 8, !tbaa !111
  %110 = load i64, ptr %8, align 8, !tbaa !111
  %111 = icmp ugt i64 %109, %110
  %112 = select i1 %111, i32 1, i32 -1
  store i32 %112, ptr %3, align 4
  store i32 1, ptr %10, align 4
  br label %122

113:                                              ; preds = %103
  %114 = load ptr, ptr %7, align 8, !tbaa !103
  %115 = getelementptr inbounds nuw %struct.Cookie, ptr %114, i32 0, i32 8
  %116 = load i32, ptr %115, align 8, !tbaa !109
  %117 = load ptr, ptr %6, align 8, !tbaa !103
  %118 = getelementptr inbounds nuw %struct.Cookie, ptr %117, i32 0, i32 8
  %119 = load i32, ptr %118, align 8, !tbaa !109
  %120 = icmp ugt i32 %116, %119
  %121 = select i1 %120, i32 1, i32 -1
  store i32 %121, ptr %3, align 4
  store i32 1, ptr %10, align 4
  br label %122

122:                                              ; preds = %113, %108, %75, %42
  call void @llvm.lifetime.end.p0(i64 8, ptr %9) #6
  call void @llvm.lifetime.end.p0(i64 8, ptr %8) #6
  call void @llvm.lifetime.end.p0(i64 8, ptr %7) #6
  call void @llvm.lifetime.end.p0(i64 8, ptr %6) #6
  %123 = load i32, ptr %3, align 4
  ret i32 %123
}